target datalayout = "e-m:e-p270:32:32-p271:32:32-p272:64:64-i64:64-i128:128-f80:128-n8:16:32:64-S128"
target triple = "x86_64-pc-linux-gnu"

%"class.zmq::signaler_t" = type { i32, i32, i32 }

@stderr = external global ptr, align 8
@.str = private unnamed_addr constant [12 x i8] c"%s (%s:%d)\0A\00", align 1
@.str.1 = private unnamed_addr constant [108 x i8] c"generated/home/dtcxzyw/WorkSpace/Projects/compilers/llvm-opt-benchmark/bench/libzmq/libzmq/src/signaler.cpp\00", align 1

; Function Attrs: mustprogress uwtable
define void @_ZN3zmq10signaler_t4sendEv(ptr noundef nonnull align 4 dereferenceable(12) %0) #0 align 2 {
  %2 = alloca ptr, align 8
  %3 = alloca i64, align 8
  %4 = alloca i64, align 8
  %5 = alloca ptr, align 8
  store ptr %0, ptr %2, align 8, !tbaa !3
  %6 = load ptr, ptr %2, align 8
  %7 = getelementptr inbounds nuw %"class.zmq::signaler_t", ptr %6, i32 0, i32 2
  %8 = load i32, ptr %7, align 4, !tbaa !12
  %9 = call i32 @getpid() #9
  %10 = icmp ne i32 %8, %9
  %11 = zext i1 %10 to i64
  %12 = call i64 @llvm.expect.i64(i64 %11, i64 0)
  %13 = icmp ne i64 %12, 0
  br i1 %13, label %14, label %15

14:                                               ; preds = %1
  br label %39

15:                                               ; preds = %1
  call void @llvm.lifetime.start.p0(i64 8, ptr %3) #9
  store i64 1, ptr %3, align 8, !tbaa !20
  call void @llvm.lifetime.start.p0(i64 8, ptr %4) #9
  %16 = getelementptr inbounds nuw %"class.zmq::signaler_t", ptr %6, i32 0, i32 0
  %17 = load i32, ptr %16, align 4, !tbaa !8
  %18 = call i64 @write(i32 noundef %17, ptr noundef %3, i64 noundef 8)
  store i64 %18, ptr %4, align 8, !tbaa !20
  br label %19

19:                                               ; preds = %15
  %20 = load i64, ptr %4, align 8, !tbaa !20
  %21 = icmp eq i64 %20, 8
  %22 = xor i1 %21, true
  %23 = zext i1 %22 to i64
  %24 = call i64 @llvm.expect.i64(i64 %23, i64 0)
  %25 = icmp ne i64 %24, 0
  br i1 %25, label %26, label %36

26:                                               ; preds = %19
  call void @llvm.lifetime.start.p0(i64 8, ptr %5) #9
  %27 = call ptr @__errno_location() #10
  %28 = load i32, ptr %27, align 4, !tbaa !13
  %29 = call ptr @strerror(i32 noundef %28) #9
  store ptr %29, ptr %5, align 8, !tbaa !14
  %30 = load ptr, ptr @stderr, align 8, !tbaa !16
  %31 = load ptr, ptr %5, align 8, !tbaa !14
  %32 = call i32 (ptr, ptr, ...) @fprintf(ptr noundef %30, ptr noundef @.str, ptr noundef %31, ptr noundef @.str.1, i32 noundef 157) #9
  %33 = load ptr, ptr @stderr, align 8, !tbaa !16
  %34 = call i32 @fflush(ptr noundef %33)
  %35 = load ptr, ptr %5, align 8, !tbaa !14
  call void @_ZN3zmq9zmq_abortEPKc(ptr noundef %35)
  call void @llvm.lifetime.end.p0(i64 8, ptr %5) #9
  br label %36

36:                                               ; preds = %26, %19
  br label %37

37:                                               ; preds = %36
  br label %38

38:                                               ; preds = %37
  call void @llvm.lifetime.end.p0(i64 8, ptr %4) #9
  call void @llvm.lifetime.end.p0(i64 8, ptr %3) #9
  br label %39

39:                                               ; preds = %38, %14
  ret void
}