; Function Attrs: mustprogress uwtable
define void @_ZN3zmq10signaler_t4sendEv(ptr noundef nonnull readonly align 4 captures(none) dereferenceable(12) %0) local_unnamed_addr #0 align 2 {
  %2 = alloca i64, align 8
  %3 = getelementptr inbounds nuw i8, ptr %0, i64 8
  %4 = load i32, ptr %3, align 4, !tbaa !9
  %5 = tail call i32 @getpid() #11
  %.not = icmp eq i32 %4, %5
  br i1 %.not, label %6, label %18, !prof !17

6:                                                ; preds = %1
  call void @llvm.lifetime.start.p0(i64 8, ptr nonnull %2) #11
  store i64 1, ptr %2, align 8, !tbaa !18
  %7 = load i32, ptr %0, align 4, !tbaa !3
  %8 = call i64 @write(i32 noundef %7, ptr noundef nonnull %2, i64 noundef 8)
  %.not3 = icmp eq i64 %8, 8
  br i1 %.not3, label %17, label %9, !prof !17

9:                                                ; preds = %6
  %10 = tail call ptr @__errno_location() #12
  %11 = load i32, ptr %10, align 4, !tbaa !10
  %12 = tail call ptr @strerror(i32 noundef %11) #11
  %13 = load ptr, ptr @stderr, align 8, !tbaa !14
  %14 = tail call i32 (ptr, ptr, ...) @fprintf(ptr noundef %13, ptr noundef nonnull @.str, ptr noundef %12, ptr noundef nonnull @.str.1, i32 noundef 157) #13
  %15 = load ptr, ptr @stderr, align 8, !tbaa !14
  %16 = tail call i32 @fflush(ptr noundef %15)
  tail call void @_ZN3zmq9zmq_abortEPKc(ptr noundef %12)
  br label %17

17:                                               ; preds = %9, %6
  call void @llvm.lifetime.end.p0(i64 8, ptr nonnull %2) #11
  br label %18

18:                                               ; preds = %1, %17
  ret void
}